; Function Attrs: mustprogress uwtable
define dso_local void @_ZN4absl24synchronization_internal12PerThreadSem23SetThreadBlockedCounterEPSt6atomicIiE(ptr noundef %0) local_unnamed_addr #0 align 2 {
  %2 = tail call noundef ptr @_ZN4absl13base_internal30CurrentThreadIdentityIfPresentEv()
  %3 = icmp eq ptr %2, null
  br i1 %3, label %4, label %_ZN4absl24synchronization_internal32GetOrCreateCurrentThreadIdentityEv.exit, !prof !4

4:                                                ; preds = %1
  %5 = tail call noundef ptr @_ZN4absl24synchronization_internal20CreateThreadIdentityEv()
  br label %_ZN4absl24synchronization_internal32GetOrCreateCurrentThreadIdentityEv.exit

_ZN4absl24synchronization_internal32GetOrCreateCurrentThreadIdentityEv.exit: ; preds = %1, %4
  %.0.i = phi ptr [ %5, %4 ], [ %2, %1 ]
  %6 = getelementptr inbounds nuw i8, ptr %.0.i, i64 320
  store ptr %0, ptr %6, align 8, !tbaa !5
  ret void
}